target datalayout = "e-m:e-p270:32:32-p271:32:32-p272:64:64-i64:64-i128:128-f80:128-n8:16:32:64-S128"
target triple = "x86_64-pc-linux-gnu"

%struct.SDL_Renderer = type { ptr, ptr, ptr, ptr, ptr, ptr, ptr, ptr, ptr, ptr, ptr, ptr, ptr, ptr, ptr, ptr, ptr, ptr, ptr, ptr, ptr, ptr, ptr, ptr, ptr, ptr, ptr, ptr, ptr, ptr, i32, i8, ptr, i8, i8, i8, i64, i64, ptr, %struct.SDL_RenderViewState, %struct.SDL_FPoint, i32, i32, ptr, ptr, ptr, i32, float, float, float, float, %struct.SDL_FColor, i32, i32, i32, ptr, ptr, ptr, ptr, i32, %struct.SDL_FColor, float, %struct.SDL_Rect, %struct.SDL_Rect, i8, i8, i8, i8, ptr, i64, i64, i8, ptr, ptr, i32, ptr, i8, ptr, ptr }
%struct.SDL_RenderViewState = type { i32, i32, %struct.SDL_Rect, %struct.SDL_Rect, %struct.SDL_Rect, %struct.SDL_Rect, i8, %struct.SDL_FPoint, i32, i32, i32, %struct.SDL_FRect, %struct.SDL_FRect, %struct.SDL_FPoint, %struct.SDL_FPoint, %struct.SDL_FPoint }
%struct.SDL_FRect = type { float, float, float, float }
%struct.SDL_FPoint = type { float, float }
%struct.SDL_FColor = type { float, float, float, float }
%struct.SDL_Rect = type { i32, i32, i32, i32 }
%struct.GLES2_RenderData = type { ptr, i8, i8, i8, ptr, ptr, ptr, ptr, ptr, ptr, ptr, ptr, ptr, ptr, ptr, ptr, ptr, ptr, ptr, ptr, ptr, ptr, ptr, ptr, ptr, ptr, ptr, ptr, ptr, ptr, ptr, ptr, ptr, ptr, ptr, ptr, ptr, ptr, ptr, ptr, ptr, ptr, ptr, ptr, ptr, ptr, ptr, ptr, ptr, ptr, ptr, ptr, ptr, ptr, ptr, ptr, ptr, ptr, ptr, ptr, ptr, ptr, i32, [16 x i32], %struct.GLES2_ProgramCache, i8, i8, i8, i8, %struct.GLES2_DrawStateCache, i32 }
%struct.GLES2_ProgramCache = type { i32, ptr, ptr }
%struct.GLES2_DrawStateCache = type { %struct.SDL_Rect, i8, ptr, ptr, i32, i8, i8, i8, %struct.SDL_Rect, i8, i8, %struct.SDL_FColor, i8, i32, i32, ptr, ptr, [4 x [4 x float]] }

; Function Attrs: nounwind uwtable
define internal void @GLES2_InvalidateCachedState(ptr noundef %0) #0 {
  %2 = alloca ptr, align 8
  %3 = alloca ptr, align 8
  store ptr %0, ptr %2, align 8
  call void @llvm.lifetime.start.p0(i64 8, ptr %3) #6
  %4 = load ptr, ptr %2, align 8
  %5 = getelementptr inbounds nuw %struct.SDL_Renderer, ptr %4, i32 0, i32 77
  %6 = load ptr, ptr %5, align 8
  %7 = getelementptr inbounds nuw %struct.GLES2_RenderData, ptr %6, i32 0, i32 69
  store ptr %7, ptr %3, align 8
  %8 = load ptr, ptr %3, align 8
  %9 = getelementptr inbounds nuw %struct.GLES2_DrawStateCache, ptr %8, i32 0, i32 1
  store i8 1, ptr %9, align 8
  %10 = load ptr, ptr %3, align 8
  %11 = getelementptr inbounds nuw %struct.GLES2_DrawStateCache, ptr %10, i32 0, i32 2
  store ptr null, ptr %11, align 8
  %12 = load ptr, ptr %3, align 8
  %13 = getelementptr inbounds nuw %struct.GLES2_DrawStateCache, ptr %12, i32 0, i32 4
  store i32 2147483647, ptr %13, align 8
  %14 = load ptr, ptr %3, align 8
  %15 = getelementptr inbounds nuw %struct.GLES2_DrawStateCache, ptr %14, i32 0, i32 5
  store i8 1, ptr %15, align 4
  %16 = load ptr, ptr %3, align 8
  %17 = getelementptr inbounds nuw %struct.GLES2_DrawStateCache, ptr %16, i32 0, i32 7
  store i8 1, ptr %17, align 2
  %18 = load ptr, ptr %3, align 8
  %19 = getelementptr inbounds nuw %struct.GLES2_DrawStateCache, ptr %18, i32 0, i32 10
  store i8 1, ptr %19, align 1
  %20 = load ptr, ptr %3, align 8
  %21 = getelementptr inbounds nuw %struct.GLES2_DrawStateCache, ptr %20, i32 0, i32 12
  store i8 1, ptr %21, align 4
  %22 = load ptr, ptr %3, align 8
  %23 = getelementptr inbounds nuw %struct.GLES2_DrawStateCache, ptr %22, i32 0, i32 13
  store i32 0, ptr %23, align 8
  %24 = load ptr, ptr %3, align 8
  %25 = getelementptr inbounds nuw %struct.GLES2_DrawStateCache, ptr %24, i32 0, i32 14
  store i32 0, ptr %25, align 4
  %26 = load ptr, ptr %3, align 8
  %27 = getelementptr inbounds nuw %struct.GLES2_DrawStateCache, ptr %26, i32 0, i32 15
  store ptr null, ptr %27, align 8
  call void @llvm.lifetime.end.p0(i64 8, ptr %3) #6
  ret void
}