; Function Attrs: mustprogress nofree norecurse nosync nounwind willreturn memory(write, argmem: readwrite, inaccessiblemem: none) uwtable
define internal void @GLES2_InvalidateCachedState(ptr noundef readonly captures(none) %0) #4 {
  %2 = getelementptr inbounds nuw i8, ptr %0, i64 696
  %3 = load ptr, ptr %2, align 8
  %4 = getelementptr inbounds nuw i8, ptr %3, i64 600
  store i8 1, ptr %4, align 8
  %5 = getelementptr inbounds nuw i8, ptr %3, i64 608
  store ptr null, ptr %5, align 8
  %6 = getelementptr inbounds nuw i8, ptr %3, i64 624
  store i32 2147483647, ptr %6, align 8
  %7 = getelementptr inbounds nuw i8, ptr %3, i64 628
  store i8 1, ptr %7, align 4
  %8 = getelementptr inbounds nuw i8, ptr %3, i64 630
  store i8 1, ptr %8, align 2
  %9 = getelementptr inbounds nuw i8, ptr %3, i64 649
  store i8 1, ptr %9, align 1
  %10 = getelementptr inbounds nuw i8, ptr %3, i64 668
  store i8 1, ptr %10, align 4
  %11 = getelementptr inbounds nuw i8, ptr %3, i64 672
  tail call void @llvm.memset.p0.i64(ptr noundef nonnull align 8 dereferenceable(16) %11, i8 0, i64 16, i1 false)
  ret void
}